target datalayout = "e-m:e-p270:32:32-p271:32:32-p272:64:64-i64:64-i128:128-f80:128-n8:16:32:64-S128"
target triple = "x86_64-pc-linux-gnu"

%struct.strbuf = type { i64, i64, ptr }
%struct.batch_options = type { i32, i32, i32, i32, i32, i32, i32, i8, i8, ptr }
%struct.expand_data = type { %struct.object_id, i32, i64, i64, ptr, %struct.object_id, i32, i32, %struct.object_info, i8 }
%struct.object_id = type { [32 x i8], i32 }
%struct.object_info = type { ptr, ptr, ptr, ptr, ptr, ptr, i32, %union.anon }
%union.anon = type { %struct.anon }
%struct.anon = type { ptr, i64, i32 }
%struct.object_context = type { i16, %struct.strbuf, ptr }

@the_repository = external global ptr, align 8
@.str.61 = private unnamed_addr constant [19 x i8] c"builtin/cat-file.c\00", align 1
@.str.79 = private unnamed_addr constant [13 x i8] c"%s missing%c\00", align 1
@stdout = external global ptr, align 8
@.str.109 = private unnamed_addr constant [15 x i8] c"%s ambiguous%c\00", align 1
@.str.110 = private unnamed_addr constant [19 x i8] c"dangling %lu%c%s%c\00", align 1
@.str.111 = private unnamed_addr constant [15 x i8] c"loop %lu%c%s%c\00", align 1
@.str.112 = private unnamed_addr constant [17 x i8] c"notdir %lu%c%s%c\00", align 1
@.str.113 = private unnamed_addr constant [41 x i8] c"unknown get_sha1_with_context result %d\0A\00", align 1
@.str.114 = private unnamed_addr constant [18 x i8] c"symlink %lu%c%s%c\00", align 1

; Function Attrs: nounwind uwtable
define internal void @batch_one_object(ptr noundef %0, ptr noundef %1, ptr noundef %2, ptr noundef %3) #0 {
  %5 = alloca ptr, align 8
  %6 = alloca ptr, align 8
  %7 = alloca ptr, align 8
  %8 = alloca ptr, align 8
  %9 = alloca %struct.object_context, align 8
  %10 = alloca i32, align 4
  %11 = alloca i32, align 4
  store ptr %0, ptr %5, align 8, !tbaa !11
  store ptr %1, ptr %6, align 8, !tbaa !101
  store ptr %2, ptr %7, align 8, !tbaa !57
  store ptr %3, ptr %8, align 8, !tbaa !102
  call void @llvm.lifetime.start.p0(i64 40, ptr %9) #9
  call void @llvm.memset.p0.i64(ptr align 8 %9, i8 0, i64 40, i1 false)
  call void @llvm.lifetime.start.p0(i64 4, ptr %10) #9
  %12 = load ptr, ptr %7, align 8, !tbaa !57
  %13 = getelementptr inbounds nuw %struct.batch_options, ptr %12, i32 0, i32 1
  %14 = load i32, ptr %13, align 4, !tbaa !33
  %15 = icmp ne i32 %14, 0
  %16 = select i1 %15, i32 64, i32 0
  %17 = or i32 8192, %16
  store i32 %17, ptr %10, align 4, !tbaa !4
  call void @llvm.lifetime.start.p0(i64 4, ptr %11) #9
  %18 = load ptr, ptr @the_repository, align 8, !tbaa !13
  %19 = load ptr, ptr %5, align 8, !tbaa !11
  %20 = load i32, ptr %10, align 4, !tbaa !4
  %21 = load ptr, ptr %8, align 8, !tbaa !102
  %22 = getelementptr inbounds nuw %struct.expand_data, ptr %21, i32 0, i32 0
  %23 = call i32 @get_oid_with_context(ptr noundef %18, ptr noundef %19, i32 noundef %20, ptr noundef %22, ptr noundef %9)
  store i32 %23, ptr %11, align 4, !tbaa !4
  %24 = load i32, ptr %11, align 4, !tbaa !4
  %25 = icmp ne i32 %24, 0
  br i1 %25, label %26, label %86

26:                                               ; preds = %4
  %27 = load i32, ptr %11, align 4, !tbaa !4
  switch i32 %27, label %81 [
    i32 -1, label %28
    i32 -2, label %35
    i32 -4, label %42
    i32 -5, label %55
    i32 -6, label %68
  ]

28:                                               ; preds = %26
  %29 = load ptr, ptr %5, align 8, !tbaa !11
  %30 = load ptr, ptr %7, align 8, !tbaa !57
  %31 = getelementptr inbounds nuw %struct.batch_options, ptr %30, i32 0, i32 8
  %32 = load i8, ptr %31, align 1, !tbaa !34
  %33 = sext i8 %32 to i32
  %34 = call i32 (ptr, ...) @printf(ptr noundef @.str.79, ptr noundef %29, i32 noundef %33)
  br label %83

35:                                               ; preds = %26
  %36 = load ptr, ptr %5, align 8, !tbaa !11
  %37 = load ptr, ptr %7, align 8, !tbaa !57
  %38 = getelementptr inbounds nuw %struct.batch_options, ptr %37, i32 0, i32 8
  %39 = load i8, ptr %38, align 1, !tbaa !34
  %40 = sext i8 %39 to i32
  %41 = call i32 (ptr, ...) @printf(ptr noundef @.str.109, ptr noundef %36, i32 noundef %40)
  br label %83

42:                                               ; preds = %26
  %43 = load ptr, ptr %5, align 8, !tbaa !11
  %44 = call i64 @strlen(ptr noundef %43) #11
  %45 = load ptr, ptr %7, align 8, !tbaa !57
  %46 = getelementptr inbounds nuw %struct.batch_options, ptr %45, i32 0, i32 8
  %47 = load i8, ptr %46, align 1, !tbaa !34
  %48 = sext i8 %47 to i32
  %49 = load ptr, ptr %5, align 8, !tbaa !11
  %50 = load ptr, ptr %7, align 8, !tbaa !57
  %51 = getelementptr inbounds nuw %struct.batch_options, ptr %50, i32 0, i32 8
  %52 = load i8, ptr %51, align 1, !tbaa !34
  %53 = sext i8 %52 to i32
  %54 = call i32 (ptr, ...) @printf(ptr noundef @.str.110, i64 noundef %44, i32 noundef %48, ptr noundef %49, i32 noundef %53)
  br label %83

55:                                               ; preds = %26
  %56 = load ptr, ptr %5, align 8, !tbaa !11
  %57 = call i64 @strlen(ptr noundef %56) #11
  %58 = load ptr, ptr %7, align 8, !tbaa !57
  %59 = getelementptr inbounds nuw %struct.batch_options, ptr %58, i32 0, i32 8
  %60 = load i8, ptr %59, align 1, !tbaa !34
  %61 = sext i8 %60 to i32
  %62 = load ptr, ptr %5, align 8, !tbaa !11
  %63 = load ptr, ptr %7, align 8, !tbaa !57
  %64 = getelementptr inbounds nuw %struct.batch_options, ptr %63, i32 0, i32 8
  %65 = load i8, ptr %64, align 1, !tbaa !34
  %66 = sext i8 %65 to i32
  %67 = call i32 (ptr, ...) @printf(ptr noundef @.str.111, i64 noundef %57, i32 noundef %61, ptr noundef %62, i32 noundef %66)
  br label %83

68:                                               ; preds = %26
  %69 = load ptr, ptr %5, align 8, !tbaa !11
  %70 = call i64 @strlen(ptr noundef %69) #11
  %71 = load ptr, ptr %7, align 8, !tbaa !57
  %72 = getelementptr inbounds nuw %struct.batch_options, ptr %71, i32 0, i32 8
  %73 = load i8, ptr %72, align 1, !tbaa !34
  %74 = sext i8 %73 to i32
  %75 = load ptr, ptr %5, align 8, !tbaa !11
  %76 = load ptr, ptr %7, align 8, !tbaa !57
  %77 = getelementptr inbounds nuw %struct.batch_options, ptr %76, i32 0, i32 8
  %78 = load i8, ptr %77, align 1, !tbaa !34
  %79 = sext i8 %78 to i32
  %80 = call i32 (ptr, ...) @printf(ptr noundef @.str.112, i64 noundef %70, i32 noundef %74, ptr noundef %75, i32 noundef %79)
  br label %83

81:                                               ; preds = %26
  %82 = load i32, ptr %11, align 4, !tbaa !4
  call void (ptr, i32, ptr, ...) @BUG_fl(ptr noundef @.str.61, i32 noundef 560, ptr noundef @.str.113, i32 noundef %82) #10
  unreachable

83:                                               ; preds = %68, %55, %42, %35, %28
  %84 = load ptr, ptr @stdout, align 8, !tbaa !82
  %85 = call i32 @fflush(ptr noundef %84)
  br label %114

86:                                               ; preds = %4
  %87 = getelementptr inbounds nuw %struct.object_context, ptr %9, i32 0, i32 0
  %88 = load i16, ptr %87, align 8, !tbaa !93
  %89 = zext i16 %88 to i32
  %90 = icmp eq i32 %89, 0
  br i1 %90, label %91, label %109

91:                                               ; preds = %86
  %92 = getelementptr inbounds nuw %struct.object_context, ptr %9, i32 0, i32 1
  %93 = getelementptr inbounds nuw %struct.strbuf, ptr %92, i32 0, i32 1
  %94 = load i64, ptr %93, align 8, !tbaa !123
  %95 = load ptr, ptr %7, align 8, !tbaa !57
  %96 = getelementptr inbounds nuw %struct.batch_options, ptr %95, i32 0, i32 8
  %97 = load i8, ptr %96, align 1, !tbaa !34
  %98 = sext i8 %97 to i32
  %99 = getelementptr inbounds nuw %struct.object_context, ptr %9, i32 0, i32 1
  %100 = getelementptr inbounds nuw %struct.strbuf, ptr %99, i32 0, i32 2
  %101 = load ptr, ptr %100, align 8, !tbaa !124
  %102 = load ptr, ptr %7, align 8, !tbaa !57
  %103 = getelementptr inbounds nuw %struct.batch_options, ptr %102, i32 0, i32 8
  %104 = load i8, ptr %103, align 1, !tbaa !34
  %105 = sext i8 %104 to i32
  %106 = call i32 (ptr, ...) @printf(ptr noundef @.str.114, i64 noundef %94, i32 noundef %98, ptr noundef %101, i32 noundef %105)
  %107 = load ptr, ptr @stdout, align 8, !tbaa !82
  %108 = call i32 @fflush(ptr noundef %107)
  br label %114

109:                                              ; preds = %86
  %110 = load ptr, ptr %5, align 8, !tbaa !11
  %111 = load ptr, ptr %6, align 8, !tbaa !101
  %112 = load ptr, ptr %7, align 8, !tbaa !57
  %113 = load ptr, ptr %8, align 8, !tbaa !102
  call void @batch_object_write(ptr noundef %110, ptr noundef %111, ptr noundef %112, ptr noundef %113, ptr noundef null, i64 noundef 0)
  br label %114

114:                                              ; preds = %109, %91, %83
  call void @object_context_release(ptr noundef %9)
  call void @llvm.lifetime.end.p0(i64 4, ptr %11) #9
  call void @llvm.lifetime.end.p0(i64 4, ptr %10) #9
  call void @llvm.lifetime.end.p0(i64 40, ptr %9) #9
  ret void
}