; Function Attrs: nounwind uwtable
define internal fastcc void @batch_one_object(ptr noundef %0, ptr noundef %1, ptr noundef %2, ptr noundef %3) unnamed_addr #0 {
  %5 = alloca %struct.object_context, align 8
  call void @llvm.lifetime.start.p0(i64 40, ptr nonnull %5) #14
  call void @llvm.memset.p0.i64(ptr noundef nonnull align 8 dereferenceable(40) %5, i8 0, i64 40, i1 false)
  %6 = getelementptr inbounds nuw i8, ptr %2, i64 4
  %7 = load i32, ptr %6, align 4, !tbaa !28
  %.not = icmp eq i32 %7, 0
  %8 = select i1 %.not, i32 8192, i32 8256
  %9 = load ptr, ptr @the_repository, align 8, !tbaa !21
  %10 = call i32 @get_oid_with_context(ptr noundef %9, ptr noundef %0, i32 noundef %8, ptr noundef %3, ptr noundef nonnull %5) #14
  switch i32 %10, label %39 [
    i32 0, label %43
    i32 -1, label %11
    i32 -2, label %16
    i32 -4, label %21
    i32 -5, label %27
    i32 -6, label %33
  ]

11:                                               ; preds = %4
  %12 = getelementptr inbounds nuw i8, ptr %2, i64 29
  %13 = load i8, ptr %12, align 1, !tbaa !29
  %14 = sext i8 %13 to i32
  %15 = call i32 (ptr, ...) @printf(ptr noundef nonnull dereferenceable(1) @.str.79, ptr noundef %0, i32 noundef %14)
  br label %40

16:                                               ; preds = %4
  %17 = getelementptr inbounds nuw i8, ptr %2, i64 29
  %18 = load i8, ptr %17, align 1, !tbaa !29
  %19 = sext i8 %18 to i32
  %20 = call i32 (ptr, ...) @printf(ptr noundef nonnull dereferenceable(1) @.str.109, ptr noundef %0, i32 noundef %19)
  br label %40

21:                                               ; preds = %4
  %22 = call i64 @strlen(ptr noundef nonnull dereferenceable(1) %0) #16
  %23 = getelementptr inbounds nuw i8, ptr %2, i64 29
  %24 = load i8, ptr %23, align 1, !tbaa !29
  %25 = sext i8 %24 to i32
  %26 = call i32 (ptr, ...) @printf(ptr noundef nonnull dereferenceable(1) @.str.110, i64 noundef %22, i32 noundef %25, ptr noundef nonnull %0, i32 noundef %25)
  br label %40

27:                                               ; preds = %4
  %28 = call i64 @strlen(ptr noundef nonnull dereferenceable(1) %0) #16
  %29 = getelementptr inbounds nuw i8, ptr %2, i64 29
  %30 = load i8, ptr %29, align 1, !tbaa !29
  %31 = sext i8 %30 to i32
  %32 = call i32 (ptr, ...) @printf(ptr noundef nonnull dereferenceable(1) @.str.111, i64 noundef %28, i32 noundef %31, ptr noundef nonnull %0, i32 noundef %31)
  br label %40

33:                                               ; preds = %4
  %34 = call i64 @strlen(ptr noundef nonnull dereferenceable(1) %0) #16
  %35 = getelementptr inbounds nuw i8, ptr %2, i64 29
  %36 = load i8, ptr %35, align 1, !tbaa !29
  %37 = sext i8 %36 to i32
  %38 = call i32 (ptr, ...) @printf(ptr noundef nonnull dereferenceable(1) @.str.112, i64 noundef %34, i32 noundef %37, ptr noundef nonnull %0, i32 noundef %37)
  br label %40

39:                                               ; preds = %4
  call void (ptr, i32, ptr, ...) @BUG_fl(ptr noundef nonnull @.str.61, i32 noundef 560, ptr noundef nonnull @.str.113, i32 noundef %10) #15
  unreachable

40:                                               ; preds = %33, %27, %21, %16, %11
  %41 = load ptr, ptr @stdout, align 8, !tbaa !70
  %42 = call i32 @fflush(ptr noundef %41)
  br label %58

43:                                               ; preds = %4
  %44 = load i16, ptr %5, align 8, !tbaa !93
  %45 = icmp eq i16 %44, 0
  br i1 %45, label %46, label %57

46:                                               ; preds = %43
  %47 = getelementptr inbounds nuw i8, ptr %5, i64 16
  %48 = load i64, ptr %47, align 8, !tbaa !110
  %49 = getelementptr inbounds nuw i8, ptr %2, i64 29
  %50 = load i8, ptr %49, align 1, !tbaa !29
  %51 = sext i8 %50 to i32
  %52 = getelementptr inbounds nuw i8, ptr %5, i64 24
  %53 = load ptr, ptr %52, align 8, !tbaa !111
  %54 = call i32 (ptr, ...) @printf(ptr noundef nonnull dereferenceable(1) @.str.114, i64 noundef %48, i32 noundef %51, ptr noundef %53, i32 noundef %51)
  %55 = load ptr, ptr @stdout, align 8, !tbaa !70
  %56 = call i32 @fflush(ptr noundef %55)
  br label %58

57:                                               ; preds = %43
  call fastcc void @batch_object_write(ptr noundef %0, ptr noundef %1, ptr noundef nonnull %2, ptr noundef %3, ptr noundef null, i64 noundef 0)
  br label %58

58:                                               ; preds = %57, %46, %40
  call void @object_context_release(ptr noundef nonnull %5) #14
  call void @llvm.lifetime.end.p0(i64 40, ptr nonnull %5) #14
  ret void
}